target datalayout = "e-m:e-p270:32:32-p271:32:32-p272:64:64-i64:64-i128:128-f80:128-n8:16:32:64-S128"
target triple = "x86_64-pc-linux-gnu"

%struct._object = type { %union.anon, ptr }
%union.anon = type { i64 }
%struct.PyVarObject = type { %struct._object, i64 }
%struct.anon = type { i32, i32 }
%struct.dequeobject = type { %struct.PyVarObject, ptr, ptr, i64, i64, i64, i64, i64, [16 x ptr], ptr }

@_Py_NoneStruct = external global %struct._object, align 8

; Function Attrs: alwaysinline nounwind uwtable
define internal void @Py_INCREF(ptr noundef %0) #4 {
  %2 = alloca ptr, align 8
  %3 = alloca i32, align 4
  %4 = alloca i32, align 4
  store ptr %0, ptr %2, align 8, !tbaa !4
  call void @llvm.lifetime.start.p0(i64 4, ptr %3) #7
  %5 = load ptr, ptr %2, align 8, !tbaa !4
  %6 = getelementptr inbounds nuw %struct._object, ptr %5, i32 0, i32 0
  %7 = getelementptr inbounds nuw %struct.anon, ptr %6, i32 0, i32 0
  %8 = load i32, ptr %7, align 8, !tbaa !39
  store i32 %8, ptr %3, align 4, !tbaa !13
  %9 = load i32, ptr %3, align 4, !tbaa !13
  %10 = icmp slt i32 %9, 0
  br i1 %10, label %11, label %12

11:                                               ; preds = %1
  store i32 1, ptr %4, align 4
  br label %18

12:                                               ; preds = %1
  %13 = load i32, ptr %3, align 4, !tbaa !13
  %14 = add i32 %13, 1
  %15 = load ptr, ptr %2, align 8, !tbaa !4
  %16 = getelementptr inbounds nuw %struct._object, ptr %15, i32 0, i32 0
  %17 = getelementptr inbounds nuw %struct.anon, ptr %16, i32 0, i32 0
  store i32 %14, ptr %17, align 8, !tbaa !39
  store i32 0, ptr %4, align 4
  br label %18

18:                                               ; preds = %12, %11
  call void @llvm.lifetime.end.p0(i64 4, ptr %3) #7
  %19 = load i32, ptr %4, align 4
  switch i32 %19, label %21 [
    i32 0, label %20
    i32 1, label %20
  ]

20:                                               ; preds = %18, %18
  ret void

21:                                               ; preds = %18
  unreachable
}

; Function Attrs: inlinehint nounwind uwtable
define internal ptr @_Py_NewRef(ptr noundef %0) #3 {
  %2 = alloca ptr, align 8
  store ptr %0, ptr %2, align 8, !tbaa !4
  %3 = load ptr, ptr %2, align 8, !tbaa !4
  call void @Py_INCREF(ptr noundef %3)
  %4 = load ptr, ptr %2, align 8, !tbaa !4
  ret ptr %4
}

; Function Attrs: nounwind uwtable
define internal ptr @deque_append_impl(ptr noundef %0, ptr noundef %1) #0 {
  %3 = alloca ptr, align 8
  %4 = alloca ptr, align 8
  %5 = alloca ptr, align 8
  store ptr %0, ptr %4, align 8, !tbaa !43
  store ptr %1, ptr %5, align 8, !tbaa !4
  %6 = load ptr, ptr %4, align 8, !tbaa !43
  %7 = load ptr, ptr %5, align 8, !tbaa !4
  %8 = call ptr @_Py_NewRef(ptr noundef %7)
  %9 = load ptr, ptr %4, align 8, !tbaa !43
  %10 = getelementptr inbounds nuw %struct.dequeobject, ptr %9, i32 0, i32 6
  %11 = load i64, ptr %10, align 8, !tbaa !55
  %12 = call i32 @deque_append_lock_held(ptr noundef %6, ptr noundef %8, i64 noundef %11)
  %13 = icmp slt i32 %12, 0
  br i1 %13, label %14, label %15

14:                                               ; preds = %2
  store ptr null, ptr %3, align 8
  br label %16

15:                                               ; preds = %2
  store ptr @_Py_NoneStruct, ptr %3, align 8
  br label %16

16:                                               ; preds = %15, %14
  %17 = load ptr, ptr %3, align 8
  ret ptr %17
}

; Function Attrs: nounwind uwtable
define internal ptr @deque_append(ptr noundef %0, ptr noundef %1) #0 {
  %3 = alloca ptr, align 8
  %4 = alloca ptr, align 8
  %5 = alloca ptr, align 8
  store ptr %0, ptr %3, align 8, !tbaa !43
  store ptr %1, ptr %4, align 8, !tbaa !4
  call void @llvm.lifetime.start.p0(i64 8, ptr %5) #7
  store ptr null, ptr %5, align 8, !tbaa !4
  %6 = load ptr, ptr %3, align 8, !tbaa !43
  %7 = load ptr, ptr %4, align 8, !tbaa !4
  %8 = call ptr @deque_append_impl(ptr noundef %6, ptr noundef %7)
  store ptr %8, ptr %5, align 8, !tbaa !4
  %9 = load ptr, ptr %5, align 8, !tbaa !4
  call void @llvm.lifetime.end.p0(i64 8, ptr %5) #7
  ret ptr %9
}